; Function Attrs: nounwind uwtable
define ptr @l___private_Lean_Data_FuzzyMatching_0__Lean_FuzzyMatching_fuzzyMatchCore_skipPenalty___lambda__2___boxed(ptr noundef %0, ptr noundef %1) local_unnamed_addr #0 {
  %3 = ptrtoint ptr %0 to i64
  %4 = and i64 %3, 1
  %.not = icmp eq i64 %4, 0
  br i1 %.not, label %5, label %lean_dec.exit5

5:                                                ; preds = %2
  %6 = load i32, ptr %0, align 4, !tbaa !5
  %7 = icmp sgt i32 %6, 1
  br i1 %7, label %8, label %10, !prof !10

8:                                                ; preds = %5
  %9 = add nsw i32 %6, -1
  store i32 %9, ptr %0, align 4, !tbaa !5
  br label %lean_dec.exit5

10:                                               ; preds = %5
  %.not.i = icmp eq i32 %6, 0
  br i1 %.not.i, label %lean_dec.exit5, label %11

11:                                               ; preds = %10
  tail call void @lean_dec_ref_cold(ptr noundef nonnull %0) #7
  br label %lean_dec.exit5

lean_dec.exit5:                                   ; preds = %11, %10, %8, %2
  %l___private_Lean_Data_FuzzyMatching_0__Lean_FuzzyMatching_fuzzyMatchCore_skipPenalty___lambda__2___closed__2.val.i = load ptr, ptr @l___private_Lean_Data_FuzzyMatching_0__Lean_FuzzyMatching_fuzzyMatchCore_skipPenalty___lambda__2___closed__2, align 8
  %l___private_Lean_Data_FuzzyMatching_0__Lean_FuzzyMatching_fuzzyMatchCore_skipPenalty___lambda__2___closed__3.val.i = load ptr, ptr @l___private_Lean_Data_FuzzyMatching_0__Lean_FuzzyMatching_fuzzyMatchCore_skipPenalty___lambda__2___closed__3, align 8
  %12 = ptrtoint ptr %1 to i64
  %13 = and i64 %12, 1
  %.not8 = icmp eq i64 %13, 0
  br i1 %.not8, label %14, label %lean_dec.exit

14:                                               ; preds = %lean_dec.exit5
  %15 = load i32, ptr %1, align 4, !tbaa !5
  %16 = icmp sgt i32 %15, 1
  br i1 %16, label %17, label %19, !prof !10

17:                                               ; preds = %14
  %18 = add nsw i32 %15, -1
  store i32 %18, ptr %1, align 4, !tbaa !5
  br label %lean_dec.exit

19:                                               ; preds = %14
  %.not.i6 = icmp eq i32 %15, 0
  br i1 %.not.i6, label %lean_dec.exit, label %20

20:                                               ; preds = %19
  tail call void @lean_dec_ref_cold(ptr noundef nonnull %1) #7
  br label %lean_dec.exit

lean_dec.exit:                                    ; preds = %20, %19, %17, %lean_dec.exit5
  %21 = and i64 %3, 510
  %22 = icmp eq i64 %21, 0
  %.0.i = select i1 %22, ptr %l___private_Lean_Data_FuzzyMatching_0__Lean_FuzzyMatching_fuzzyMatchCore_skipPenalty___lambda__2___closed__2.val.i, ptr %l___private_Lean_Data_FuzzyMatching_0__Lean_FuzzyMatching_fuzzyMatchCore_skipPenalty___lambda__2___closed__3.val.i
  ret ptr %.0.i
}